(dp0
(S'right'
p1
S'green'
p2
g1
Ntp3
(dp4
S'forward'
p5
I15
sg1
I15
sNF2.0389822079999997
sS'left'
p6
I15
ss(g5
S'red'
p7
NNtp8
(dp9
g5
F-0.26048280000000007
sg1
F-0.278733
sNF0.38210381479392047
sg6
F-0.605928
ss(g5
g7
Ng5
tp10
(dp11
g5
F1.093015619535258
sg1
I15
sNI15
sg6
I15
ss(g6
g7
Ng1
tp12
(dp13
g5
F1.0105785974399994
sg1
I15
sNI15
sg6
I15
ss(g5
g2
Ng6
tp14
(dp15
g5
I15
sg1
I15
sNI15
sg6
F1.497622967450968
ss(g5
g7
g6
Ntp16
(dp17
g5
I15
sg1
F1.432084729412693
sNF4.199999999999999
sg6
I15
ss(g1
g7
NNtp18
(dp19
g5
F-0.45611976
sg1
F2.0772171619398025
sNF0.6315782208
sg6
F1.4830079999999994
ss(g6
g7
Ng5
tp20
(dp21
g5
I15
sg1
I15
sNI15
sg6
F1.0932264450103553
ss(g5
g7
Ng1
tp22
(dp23
g5
I15
sg1
I15
sNI15
sg6
F0.9794436036656168
ss(g1
g2
Ng1
tp24
(dp25
g5
F1.4971633210683062
sg1
I15
sNI15
sg6
I15
ss(g5
g2
g1
Ntp26
(dp27
g5
I15
sg1
I15
sNF1.8745453152455696
sg6
I15
ss(g5
g7
g5
Ntp28
(dp29
g5
F0.18599999999999978
sg1
F1.1330946277973168
sNF0.5672100823144696
sg6
F3.3
ss(g6
g2
NNtp30
(dp31
g5
F0.06076679999999984
sg1
F0.5999999999999999
sNF0.7116
sg6
F2.3833885436725706
ss(g6
g2
Ng1
tp32
(dp33
g5
I15
sg1
I15
sNI15
sg6
F3.3758349576292677
ss(g5
g2
Ng5
tp34
(dp35
g5
I15
sg1
F1.4251672492937044
sNF4.199999999999999
sg6
F1.4993966530710705
ss(g1
g2
Ng5
tp36
(dp37
g5
F1.904039567538328
sg1
F3.301117645293929
sNI15
sg6
I15
ss(g6
g2
g6
Ntp38
(dp39
g5
I15
sg1
I15
sNI15
sg6
F3.740971641888636
ss(g1
g7
g6
Ntp40
(dp41
g5
I15
sg1
F3.3873484008434485
sNI15
sg6
I15
ss(g5
g2
g6
Ntp42
(dp43
g5
F3.367894846937852
sg1
F3.7499999999999996
sNF3.12
sg6
I15
ss(g6
g7
NNtp44
(dp45
g5
F-0.22260000000000002
sg1
F-0.072083428254379
sNF0.4166459752365666
sg6
F-0.3036
ss(g5
g2
NNtp46
(dp47
g5
F2.106337536891228
sg1
F0.3974999999999999
sNF0.4916904
sg6
F0.5999999999999999
ss(g1
g2
NNtp48
(dp49
g5
F0.12922079999999997
sg1
F2.4895253012299983
sNF0.8476799999999999
sg6
F1.8059999999999994
ss(g5
g2
Ng1
tp50
(dp51
g5
I15
sg1
I15
sNI15
sg6
F1.4983863232884553
ss.